; ModuleID = 'source-C-CXX/32/218.c'
source_filename = "source-C-CXX/32/218.c"
target datalayout = "e-m:e-p270:32:32-p271:32:32-p272:64:64-i64:64-f80:128-n8:16:32:64-S128"
target triple = "x86_64-pc-linux-gnu"

@.str = private unnamed_addr constant [3 x i8] c"%d\00", align 1
@.str.1 = private unnamed_addr constant [3 x i8] c"%s\00", align 1

; Function Attrs: nofree nounwind sspstrong uwtable
define dso_local i32 @main() local_unnamed_addr #0 {
  %1 = alloca i32, align 4
  %2 = alloca [300 x i8], align 16
  %3 = bitcast i32* %1 to i8*
  call void @llvm.lifetime.start.p0i8(i64 4, i8* nonnull %3) #5
  %4 = getelementptr inbounds [300 x i8], [300 x i8]* %2, i64 0, i64 0
  call void @llvm.lifetime.start.p0i8(i64 300, i8* nonnull %4) #5
  %5 = call i32 (i8*, ...) @__isoc99_scanf(i8* getelementptr inbounds ([3 x i8], [3 x i8]* @.str, i64 0, i64 0), i32* nonnull %1)
  %6 = load i32, i32* %1, align 4, !tbaa !5
  %7 = icmp sgt i32 %6, 0
  br i1 %7, label %8, label %35

8:                                                ; preds = %0, %30
  %9 = phi i32 [ %32, %30 ], [ 0, %0 ]
  %10 = call i32 (i8*, ...) @__isoc99_scanf(i8* getelementptr inbounds ([3 x i8], [3 x i8]* @.str.1, i64 0, i64 0), i8* nonnull %4)
  %11 = load i8, i8* %4, align 16
  %12 = icmp eq i8 %11, 0
  br i1 %12, label %30, label %13

13:                                               ; preds = %8, %27
  %14 = phi i8 [ %29, %27 ], [ %11, %8 ]
  %15 = phi i64 [ %24, %27 ], [ 0, %8 ]
  %16 = sext i8 %14 to i32
  switch i32 %16, label %23 [
    i32 65, label %20
    i32 84, label %17
    i32 67, label %18
    i32 71, label %19
  ]

17:                                               ; preds = %13
  br label %20

18:                                               ; preds = %13
  br label %20

19:                                               ; preds = %13
  br label %20

20:                                               ; preds = %13, %19, %18, %17
  %21 = phi i32 [ 65, %17 ], [ 71, %18 ], [ 67, %19 ], [ 84, %13 ]
  %22 = call i32 @putchar(i32 %21)
  br label %23

23:                                               ; preds = %20, %13
  %24 = add nuw i64 %15, 1
  %25 = call i64 @strlen(i8* noundef nonnull %4) #6
  %26 = icmp ugt i64 %25, %24
  br i1 %26, label %27, label %30, !llvm.loop !9

27:                                               ; preds = %23
  %28 = getelementptr inbounds [300 x i8], [300 x i8]* %2, i64 0, i64 %24
  %29 = load i8, i8* %28, align 1, !tbaa !11
  br label %13

30:                                               ; preds = %23, %8
  %31 = call i32 @putchar(i32 10)
  %32 = add nuw nsw i32 %9, 1
  %33 = load i32, i32* %1, align 4, !tbaa !5
  %34 = icmp slt i32 %32, %33
  br i1 %34, label %8, label %35, !llvm.loop !12

35:                                               ; preds = %30, %0
  call void @llvm.lifetime.end.p0i8(i64 300, i8* nonnull %4) #5
  call void @llvm.lifetime.end.p0i8(i64 4, i8* nonnull %3) #5
  ret i32 0
}

; Function Attrs: argmemonly mustprogress nofree nosync nounwind willreturn
declare void @llvm.lifetime.start.p0i8(i64 immarg, i8* nocapture) #1

; Function Attrs: nofree nounwind
declare noundef i32 @__isoc99_scanf(i8* nocapture noundef readonly, ...) local_unnamed_addr #2

; Function Attrs: argmemonly mustprogress nofree nounwind readonly willreturn
declare i64 @strlen(i8* nocapture) local_unnamed_addr #3

; Function Attrs: argmemonly mustprogress nofree nosync nounwind willreturn
declare void @llvm.lifetime.end.p0i8(i64 immarg, i8* nocapture) #1

; Function Attrs: nofree nounwind
declare noundef i32 @putchar(i32 noundef) local_unnamed_addr #4


!llvm.module.flags = !{!0, !1, !2, !3}
!llvm.ident = !{!4}

!0 = !{i32 1, !"wchar_size", i32 4}
!1 = !{i32 7, !"PIC Level", i32 2}
!2 = !{i32 7, !"PIE Level", i32 2}
!3 = !{i32 7, !"uwtable", i32 1}
!4 = !{!"clang version 13.0.0"}
!5 = !{!6, !6, i64 0}
!6 = !{!"int", !7, i64 0}
!7 = !{!"omnipotent char", !8, i64 0}
!8 = !{!"Simple C/C++ TBAA"}
!9 = distinct !{!9, !10}
!10 = !{!"llvm.loop.mustprogress"}
!11 = !{!7, !7, i64 0}
!12 = distinct !{!12, !10}
